; Function Attrs: nounwind uwtable
define void @Gia_Min2ObjAddToFrontier(ptr noundef readonly captures(none) %0, ptr noundef %1, ptr noundef captures(none) %2, ptr noundef %3, ptr noundef captures(none) %4) local_unnamed_addr #0 {
  %6 = getelementptr i8, ptr %0, i64 32
  %.val12 = load ptr, ptr %6, align 8, !tbaa !50
  %7 = getelementptr i8, ptr %0, i64 400
  %.val13 = load ptr, ptr %7, align 8, !tbaa !17
  %8 = ptrtoint ptr %1 to i64
  %9 = ptrtoint ptr %.val12 to i64
  %10 = sub i64 %8, %9
  %11 = sdiv exact i64 %10, 12
  %sext.i = shl i64 %11, 32
  %12 = ashr exact i64 %sext.i, 30
  %13 = getelementptr inbounds i8, ptr %.val13, i64 %12
  %14 = load i32, ptr %13, align 4, !tbaa !47
  %15 = icmp sgt i32 %14, -1
  br i1 %15, label %90, label %16

16:                                               ; preds = %5
  %17 = trunc i64 %11 to i32
  %18 = getelementptr inbounds nuw i8, ptr %4, i64 4
  %19 = load i32, ptr %18, align 4, !tbaa !12
  %20 = load i32, ptr %4, align 8, !tbaa !16
  %21 = icmp eq i32 %19, %20
  br i1 %21, label %22, label %.Vec_IntGrow.exit10_crit_edge.i

.Vec_IntGrow.exit10_crit_edge.i:                  ; preds = %16
  %.phi.trans.insert.i = getelementptr inbounds nuw i8, ptr %4, i64 8
  %.pre.i = load ptr, ptr %.phi.trans.insert.i, align 8, !tbaa !17
  br label %Vec_IntPush.exit

22:                                               ; preds = %16
  %23 = icmp slt i32 %19, 16
  br i1 %23, label %24, label %32

24:                                               ; preds = %22
  %25 = getelementptr inbounds nuw i8, ptr %4, i64 8
  %26 = load ptr, ptr %25, align 8, !tbaa !17
  %.not9.i.i = icmp eq ptr %26, null
  br i1 %.not9.i.i, label %29, label %27

27:                                               ; preds = %24
  %28 = tail call dereferenceable_or_null(64) ptr @realloc(ptr noundef nonnull %26, i64 noundef 64) #18
  br label %Vec_IntGrow.exit.i

29:                                               ; preds = %24
  %30 = tail call noalias dereferenceable_or_null(64) ptr @malloc(i64 noundef 64) #16
  br label %Vec_IntGrow.exit.i

Vec_IntGrow.exit.i:                               ; preds = %29, %27
  %31 = phi ptr [ %28, %27 ], [ %30, %29 ]
  store ptr %31, ptr %25, align 8, !tbaa !17
  store i32 16, ptr %4, align 8, !tbaa !16
  br label %Vec_IntPush.exit

32:                                               ; preds = %22
  %33 = shl nuw nsw i32 %19, 1
  %34 = getelementptr inbounds nuw i8, ptr %4, i64 8
  %35 = load ptr, ptr %34, align 8, !tbaa !17
  %.not9.i9.i = icmp eq ptr %35, null
  %36 = zext nneg i32 %33 to i64
  %37 = shl nuw nsw i64 %36, 2
  br i1 %.not9.i9.i, label %40, label %38

38:                                               ; preds = %32
  %39 = tail call ptr @realloc(ptr noundef nonnull %35, i64 noundef %37) #18
  br label %42

40:                                               ; preds = %32
  %41 = tail call noalias ptr @malloc(i64 noundef %37) #16
  br label %42

42:                                               ; preds = %40, %38
  %43 = phi ptr [ %39, %38 ], [ %41, %40 ]
  store ptr %43, ptr %34, align 8, !tbaa !17
  store i32 %33, ptr %4, align 8, !tbaa !16
  br label %Vec_IntPush.exit

Vec_IntPush.exit:                                 ; preds = %.Vec_IntGrow.exit10_crit_edge.i, %Vec_IntGrow.exit.i, %42
  %44 = phi ptr [ %.pre.i, %.Vec_IntGrow.exit10_crit_edge.i ], [ %43, %42 ], [ %31, %Vec_IntGrow.exit.i ]
  %45 = load i32, ptr %18, align 4, !tbaa !12
  %46 = add nsw i32 %45, 1
  store i32 %46, ptr %18, align 4, !tbaa !12
  %47 = sext i32 %45 to i64
  %48 = getelementptr inbounds i32, ptr %44, i64 %47
  store i32 %17, ptr %48, align 4, !tbaa !47
  %49 = tail call i32 @satoko_add_variable(ptr noundef %3, i8 noundef signext 0) #17
  %.val14 = load ptr, ptr %6, align 8, !tbaa !50
  %.val15 = load ptr, ptr %7, align 8, !tbaa !17
  %50 = ptrtoint ptr %.val14 to i64
  %51 = sub i64 %8, %50
  %52 = sdiv exact i64 %51, 12
  %sext.i16 = shl i64 %52, 32
  %53 = ashr exact i64 %sext.i16, 30
  %54 = getelementptr inbounds i8, ptr %.val15, i64 %53
  store i32 %49, ptr %54, align 4, !tbaa !47
  %.val11 = load i64, ptr %1, align 4
  %55 = and i64 %.val11, 2147483648
  %.not.i = icmp ne i64 %55, 0
  %56 = and i64 %.val11, 536870911
  %57 = icmp eq i64 %56, 536870911
  %narrow.i.not = or i1 %.not.i, %57
  br i1 %narrow.i.not, label %90, label %58

58:                                               ; preds = %Vec_IntPush.exit
  %59 = getelementptr inbounds nuw i8, ptr %2, i64 4
  %60 = load i32, ptr %59, align 4, !tbaa !21
  %61 = load i32, ptr %2, align 8, !tbaa !23
  %62 = icmp eq i32 %60, %61
  br i1 %62, label %63, label %.Vec_PtrGrow.exit11_crit_edge.i

.Vec_PtrGrow.exit11_crit_edge.i:                  ; preds = %58
  %.phi.trans.insert.i17 = getelementptr inbounds nuw i8, ptr %2, i64 8
  %.pre.i18 = load ptr, ptr %.phi.trans.insert.i17, align 8, !tbaa !24
  br label %Vec_PtrPush.exit

63:                                               ; preds = %58
  %64 = icmp slt i32 %60, 16
  br i1 %64, label %65, label %73

65:                                               ; preds = %63
  %66 = getelementptr inbounds nuw i8, ptr %2, i64 8
  %67 = load ptr, ptr %66, align 8, !tbaa !24
  %.not9.i.i19 = icmp eq ptr %67, null
  br i1 %.not9.i.i19, label %70, label %68

68:                                               ; preds = %65
  %69 = tail call dereferenceable_or_null(128) ptr @realloc(ptr noundef nonnull %67, i64 noundef 128) #18
  br label %Vec_PtrGrow.exit.i

70:                                               ; preds = %65
  %71 = tail call noalias dereferenceable_or_null(128) ptr @malloc(i64 noundef 128) #16
  br label %Vec_PtrGrow.exit.i

Vec_PtrGrow.exit.i:                               ; preds = %70, %68
  %72 = phi ptr [ %69, %68 ], [ %71, %70 ]
  store ptr %72, ptr %66, align 8, !tbaa !24
  store i32 16, ptr %2, align 8, !tbaa !23
  br label %Vec_PtrPush.exit

73:                                               ; preds = %63
  %74 = shl nuw nsw i32 %60, 1
  %75 = getelementptr inbounds nuw i8, ptr %2, i64 8
  %76 = load ptr, ptr %75, align 8, !tbaa !24
  %.not9.i10.i = icmp eq ptr %76, null
  %77 = zext nneg i32 %74 to i64
  %78 = shl nuw nsw i64 %77, 3
  br i1 %.not9.i10.i, label %81, label %79

79:                                               ; preds = %73
  %80 = tail call ptr @realloc(ptr noundef nonnull %76, i64 noundef %78) #18
  br label %83

81:                                               ; preds = %73
  %82 = tail call noalias ptr @malloc(i64 noundef %78) #16
  br label %83

83:                                               ; preds = %81, %79
  %84 = phi ptr [ %80, %79 ], [ %82, %81 ]
  store ptr %84, ptr %75, align 8, !tbaa !24
  store i32 %74, ptr %2, align 8, !tbaa !23
  br label %Vec_PtrPush.exit

Vec_PtrPush.exit:                                 ; preds = %.Vec_PtrGrow.exit11_crit_edge.i, %Vec_PtrGrow.exit.i, %83
  %85 = phi ptr [ %.pre.i18, %.Vec_PtrGrow.exit11_crit_edge.i ], [ %84, %83 ], [ %72, %Vec_PtrGrow.exit.i ]
  %86 = load i32, ptr %59, align 4, !tbaa !21
  %87 = add nsw i32 %86, 1
  store i32 %87, ptr %59, align 4, !tbaa !21
  %88 = sext i32 %86 to i64
  %89 = getelementptr inbounds ptr, ptr %85, i64 %88
  store ptr %1, ptr %89, align 8, !tbaa !44
  br label %90

90:                                               ; preds = %5, %Vec_PtrPush.exit, %Vec_IntPush.exit
  ret void
}